target datalayout = "e-m:e-p270:32:32-p271:32:32-p272:64:64-i64:64-i128:128-f80:128-n8:16:32:64-S128"
target triple = "x86_64-pc-linux-gnu"

%"class.sls::datatype_plugin" = type { %"class.sls::plugin.base", ptr, ptr, %class.obj_map, %class.obj_map.0, i8, %"class.datatype::util", %class.ref_vector, %class.ref_vector, %class.ref_vector, %class.ref, %"struct.sls::datatype_plugin::stats", [4 x i8], %class.obj_map.5, %class.obj_map.10 }
%"class.sls::plugin.base" = type <{ ptr, ptr, ptr, i32 }>
%class.obj_map = type { %class.core_hashtable }
%class.core_hashtable = type <{ ptr, i32, i32, i32, [4 x i8] }>
%class.obj_map.0 = type { %class.core_hashtable.1 }
%class.core_hashtable.1 = type <{ ptr, i32, i32, i32, [4 x i8] }>
%"class.datatype::util" = type { ptr, i32, ptr }
%class.ref_vector = type { %class.ref_vector_core }
%class.ref_vector_core = type { %class.ref_manager_wrapper, %class.ptr_vector }
%class.ref_manager_wrapper = type { ptr }
%class.ptr_vector = type { %class.vector }
%class.vector = type { ptr }
%class.ref = type { ptr }
%"struct.sls::datatype_plugin::stats" = type { i32 }
%class.obj_map.5 = type { %class.core_hashtable.6 }
%class.core_hashtable.6 = type <{ ptr, i32, i32, i32, [4 x i8] }>
%class.obj_map.10 = type { %class.core_hashtable.11 }
%class.core_hashtable.11 = type <{ ptr, i32, i32, i32, [4 x i8] }>
%"class.sls::plugin" = type <{ ptr, ptr, ptr, i32, [4 x i8] }>
%class.vector.64 = type { ptr }
%"struct.sls::datatype_plugin::parent_t" = type { ptr, %class.obj_ref }
%class.obj_ref = type { ptr, ptr }
%class.ast = type { i32, i32, i32, i32 }

; Function Attrs: inlinehint mustprogress nounwind uwtable
define linkonce_odr hidden void @_ZSt4swapIP4exprENSt9enable_ifIXsr6__and_ISt6__not_ISt15__is_tuple_likeIT_EESt21is_move_constructibleIS5_ESt18is_move_assignableIS5_EEE5valueEvE4typeERS5_SE_(ptr noundef nonnull align 8 dereferenceable(8) %0, ptr noundef nonnull align 8 dereferenceable(8) %1) #6 comdat {
  %3 = alloca ptr, align 8
  %4 = alloca ptr, align 8
  %5 = alloca ptr, align 8
  store ptr %0, ptr %3, align 8, !tbaa !76
  store ptr %1, ptr %4, align 8, !tbaa !76
  call void @llvm.lifetime.start.p0(i64 8, ptr %5) #3
  %6 = load ptr, ptr %3, align 8, !tbaa !76
  %7 = load ptr, ptr %6, align 8, !tbaa !71
  store ptr %7, ptr %5, align 8, !tbaa !71
  %8 = load ptr, ptr %4, align 8, !tbaa !76
  %9 = load ptr, ptr %8, align 8, !tbaa !71
  %10 = load ptr, ptr %3, align 8, !tbaa !76
  store ptr %9, ptr %10, align 8, !tbaa !71
  %11 = load ptr, ptr %5, align 8, !tbaa !71
  %12 = load ptr, ptr %4, align 8, !tbaa !76
  store ptr %11, ptr %12, align 8, !tbaa !71
  call void @llvm.lifetime.end.p0(i64 8, ptr %5) #3
  ret void
}

; Function Attrs: mustprogress nounwind uwtable
define linkonce_odr hidden void @_ZN3ast7inc_refEv(ptr noundef nonnull align 4 dereferenceable(16) %0) #5 comdat align 2 {
  %2 = alloca ptr, align 8
  store ptr %0, ptr %2, align 8, !tbaa !91
  %3 = load ptr, ptr %2, align 8
  %4 = getelementptr inbounds nuw %class.ast, ptr %3, i32 0, i32 2
  %5 = load i32, ptr %4, align 4, !tbaa !490
  %6 = add i32 %5, 1
  store i32 %6, ptr %4, align 4, !tbaa !490
  ret void
}

; Function Attrs: mustprogress nounwind uwtable
define linkonce_odr hidden void @_ZN7obj_refI4expr11ast_managerEC2EOS2_(ptr noundef nonnull align 8 dereferenceable(16) %0, ptr noundef nonnull align 8 dereferenceable(16) %1) unnamed_addr #5 comdat align 2 {
  %3 = alloca ptr, align 8
  %4 = alloca ptr, align 8
  store ptr %0, ptr %3, align 8, !tbaa !137
  store ptr %1, ptr %4, align 8, !tbaa !137
  %5 = load ptr, ptr %3, align 8
  %6 = getelementptr inbounds nuw %class.obj_ref, ptr %5, i32 0, i32 0
  store ptr null, ptr %6, align 8, !tbaa !139
  %7 = getelementptr inbounds nuw %class.obj_ref, ptr %5, i32 0, i32 1
  %8 = load ptr, ptr %4, align 8, !tbaa !137
  %9 = getelementptr inbounds nuw %class.obj_ref, ptr %8, i32 0, i32 1
  %10 = load ptr, ptr %9, align 8, !tbaa !439
  store ptr %10, ptr %7, align 8, !tbaa !54
  %11 = getelementptr inbounds nuw %class.obj_ref, ptr %5, i32 0, i32 0
  %12 = load ptr, ptr %4, align 8, !tbaa !137
  %13 = getelementptr inbounds nuw %class.obj_ref, ptr %12, i32 0, i32 0
  call void @_ZSt4swapIP4exprENSt9enable_ifIXsr6__and_ISt6__not_ISt15__is_tuple_likeIT_EESt21is_move_constructibleIS5_ESt18is_move_assignableIS5_EEE5valueEvE4typeERS5_SE_(ptr noundef nonnull align 8 dereferenceable(8) %11, ptr noundef nonnull align 8 dereferenceable(8) %13) #3
  ret void
}

; Function Attrs: mustprogress uwtable
define linkonce_odr hidden void @_ZN11ast_manager7inc_refEP3ast(ptr noundef nonnull align 8 dereferenceable(976) %0, ptr noundef %1) #4 comdat align 2 {
  %3 = alloca ptr, align 8
  %4 = alloca ptr, align 8
  store ptr %0, ptr %3, align 8, !tbaa !54
  store ptr %1, ptr %4, align 8, !tbaa !91
  %5 = load ptr, ptr %4, align 8, !tbaa !91
  %6 = icmp ne ptr %5, null
  br i1 %6, label %7, label %9

7:                                                ; preds = %2
  %8 = load ptr, ptr %4, align 8, !tbaa !91
  call void @_ZN3ast7inc_refEv(ptr noundef nonnull align 4 dereferenceable(16) %8)
  br label %9

9:                                                ; preds = %7, %2
  ret void
}

; Function Attrs: inlinehint mustprogress nounwind uwtable
define linkonce_odr hidden void @_ZN3sls15datatype_plugin8parent_tC2EOS1_(ptr noundef nonnull align 8 dereferenceable(24) %0, ptr noundef nonnull align 8 dereferenceable(24) %1) unnamed_addr #6 comdat align 2 {
  %3 = alloca ptr, align 8
  %4 = alloca ptr, align 8
  store ptr %0, ptr %3, align 8, !tbaa !136
  store ptr %1, ptr %4, align 8, !tbaa !136
  %5 = load ptr, ptr %3, align 8
  %6 = getelementptr inbounds nuw %"struct.sls::datatype_plugin::parent_t", ptr %5, i32 0, i32 0
  %7 = load ptr, ptr %4, align 8, !tbaa !136
  %8 = getelementptr inbounds nuw %"struct.sls::datatype_plugin::parent_t", ptr %7, i32 0, i32 0
  %9 = load ptr, ptr %8, align 8, !tbaa !86
  store ptr %9, ptr %6, align 8, !tbaa !86
  %10 = getelementptr inbounds nuw %"struct.sls::datatype_plugin::parent_t", ptr %5, i32 0, i32 1
  %11 = load ptr, ptr %4, align 8, !tbaa !136
  %12 = getelementptr inbounds nuw %"struct.sls::datatype_plugin::parent_t", ptr %11, i32 0, i32 1
  call void @_ZN7obj_refI4expr11ast_managerEC2EOS2_(ptr noundef nonnull align 8 dereferenceable(16) %10, ptr noundef nonnull align 8 dereferenceable(16) %12) #3
  ret void
}

; Function Attrs: mustprogress uwtable
define linkonce_odr hidden void @_ZN7obj_refI4expr11ast_managerE7inc_refEv(ptr noundef nonnull align 8 dereferenceable(16) %0) #4 comdat align 2 {
  %2 = alloca ptr, align 8
  store ptr %0, ptr %2, align 8, !tbaa !137
  %3 = load ptr, ptr %2, align 8
  %4 = getelementptr inbounds nuw %class.obj_ref, ptr %3, i32 0, i32 0
  %5 = load ptr, ptr %4, align 8, !tbaa !139
  %6 = icmp ne ptr %5, null
  br i1 %6, label %7, label %12

7:                                                ; preds = %1
  %8 = getelementptr inbounds nuw %class.obj_ref, ptr %3, i32 0, i32 1
  %9 = load ptr, ptr %8, align 8, !tbaa !439
  %10 = getelementptr inbounds nuw %class.obj_ref, ptr %3, i32 0, i32 0
  %11 = load ptr, ptr %10, align 8, !tbaa !139
  call void @_ZN11ast_manager7inc_refEP3ast(ptr noundef nonnull align 8 dereferenceable(976) %9, ptr noundef %11)
  br label %12

12:                                               ; preds = %7, %1
  ret void
}

; Function Attrs: mustprogress uwtable
define linkonce_odr hidden noundef nonnull align 8 dereferenceable(8) ptr @_ZN6vectorIN3sls15datatype_plugin8parent_tELb1EjE9push_backEOS2_(ptr noundef nonnull align 8 dereferenceable(8) %0, ptr noundef nonnull align 8 dereferenceable(24) %1) #4 comdat align 2 {
  %3 = alloca ptr, align 8
  %4 = alloca ptr, align 8
  store ptr %0, ptr %3, align 8, !tbaa !131
  store ptr %1, ptr %4, align 8, !tbaa !136
  %5 = load ptr, ptr %3, align 8
  %6 = getelementptr inbounds nuw %class.vector.64, ptr %5, i32 0, i32 0
  %7 = load ptr, ptr %6, align 8, !tbaa !133
  %8 = icmp eq ptr %7, null
  br i1 %8, label %19, label %9

9:                                                ; preds = %2
  %10 = getelementptr inbounds nuw %class.vector.64, ptr %5, i32 0, i32 0
  %11 = load ptr, ptr %10, align 8, !tbaa !133
  %12 = getelementptr inbounds i32, ptr %11, i64 -1
  %13 = load i32, ptr %12, align 4, !tbaa !79
  %14 = getelementptr inbounds nuw %class.vector.64, ptr %5, i32 0, i32 0
  %15 = load ptr, ptr %14, align 8, !tbaa !133
  %16 = getelementptr inbounds i32, ptr %15, i64 -2
  %17 = load i32, ptr %16, align 4, !tbaa !79
  %18 = icmp eq i32 %13, %17
  br i1 %18, label %19, label %20

19:                                               ; preds = %9, %2
  call void @_ZN6vectorIN3sls15datatype_plugin8parent_tELb1EjE13expand_vectorEv(ptr noundef nonnull align 8 dereferenceable(8) %5)
  br label %20

20:                                               ; preds = %19, %9
  %21 = getelementptr inbounds nuw %class.vector.64, ptr %5, i32 0, i32 0
  %22 = load ptr, ptr %21, align 8, !tbaa !133
  %23 = getelementptr inbounds nuw %class.vector.64, ptr %5, i32 0, i32 0
  %24 = load ptr, ptr %23, align 8, !tbaa !133
  %25 = getelementptr inbounds i32, ptr %24, i64 -1
  %26 = load i32, ptr %25, align 4, !tbaa !79
  %27 = zext i32 %26 to i64
  %28 = getelementptr inbounds nuw %"struct.sls::datatype_plugin::parent_t", ptr %22, i64 %27
  %29 = load ptr, ptr %4, align 8, !tbaa !136
  call void @_ZN3sls15datatype_plugin8parent_tC2EOS1_(ptr noundef nonnull align 8 dereferenceable(24) %28, ptr noundef nonnull align 8 dereferenceable(24) %29) #3
  %30 = getelementptr inbounds nuw %class.vector.64, ptr %5, i32 0, i32 0
  %31 = load ptr, ptr %30, align 8, !tbaa !133
  %32 = getelementptr inbounds i32, ptr %31, i64 -1
  %33 = load i32, ptr %32, align 4, !tbaa !79
  %34 = add i32 %33, 1
  store i32 %34, ptr %32, align 4, !tbaa !79
  ret ptr %5
}

; Function Attrs: mustprogress uwtable
define linkonce_odr hidden void @_ZN7obj_refI4expr11ast_managerEC2EPS0_RS1_(ptr noundef nonnull align 8 dereferenceable(16) %0, ptr noundef %1, ptr noundef nonnull align 8 dereferenceable(976) %2) unnamed_addr #4 comdat align 2 {
  %4 = alloca ptr, align 8
  %5 = alloca ptr, align 8
  %6 = alloca ptr, align 8
  store ptr %0, ptr %4, align 8, !tbaa !137
  store ptr %1, ptr %5, align 8, !tbaa !71
  store ptr %2, ptr %6, align 8, !tbaa !54
  %7 = load ptr, ptr %4, align 8
  %8 = getelementptr inbounds nuw %class.obj_ref, ptr %7, i32 0, i32 0
  %9 = load ptr, ptr %5, align 8, !tbaa !71
  store ptr %9, ptr %8, align 8, !tbaa !139
  %10 = getelementptr inbounds nuw %class.obj_ref, ptr %7, i32 0, i32 1
  %11 = load ptr, ptr %6, align 8, !tbaa !54
  store ptr %11, ptr %10, align 8, !tbaa !54
  call void @_ZN7obj_refI4expr11ast_managerE7inc_refEv(ptr noundef nonnull align 8 dereferenceable(16) %7)
  ret void
}

; Function Attrs: mustprogress nounwind uwtable
define linkonce_odr hidden void @_ZN6vectorIN3sls15datatype_plugin8parent_tELb1EjEC2Ev(ptr noundef nonnull align 8 dereferenceable(8) %0) unnamed_addr #5 comdat align 2 {
  %2 = alloca ptr, align 8
  store ptr %0, ptr %2, align 8, !tbaa !131
  %3 = load ptr, ptr %2, align 8
  %4 = getelementptr inbounds nuw %class.vector.64, ptr %3, i32 0, i32 0
  store ptr null, ptr %4, align 8, !tbaa !133
  ret void
}

; Function Attrs: mustprogress uwtable
define hidden void @_ZN3sls15datatype_plugin8add_edgeEP4exprS2_S2_(ptr noundef nonnull align 8 dereferenceable(240) %0, ptr noundef %1, ptr noundef %2, ptr noundef %3) #4 align 2 personality ptr @__gxx_personality_v0 {
  %5 = alloca ptr, align 8
  %6 = alloca ptr, align 8
  %7 = alloca ptr, align 8
  %8 = alloca ptr, align 8
  %9 = alloca %class.vector.64, align 8
  %10 = alloca ptr, align 8
  %11 = alloca i32, align 4
  %12 = alloca %"struct.sls::datatype_plugin::parent_t", align 8
  store ptr %0, ptr %5, align 8, !tbaa !3
  store ptr %1, ptr %6, align 8, !tbaa !71
  store ptr %2, ptr %7, align 8, !tbaa !71
  store ptr %3, ptr %8, align 8, !tbaa !71
  %13 = load ptr, ptr %5, align 8
  %14 = getelementptr inbounds nuw %"class.sls::datatype_plugin", ptr %13, i32 0, i32 4
  %15 = load ptr, ptr %6, align 8, !tbaa !71
  call void @llvm.lifetime.start.p0(i64 8, ptr %9) #3
  call void @llvm.memset.p0.i64(ptr align 8 %9, i8 0, i64 8, i1 false)
  call void @_ZN6vectorIN3sls15datatype_plugin8parent_tELb1EjEC2Ev(ptr noundef nonnull align 8 dereferenceable(8) %9) #3
  %16 = invoke noundef nonnull align 8 dereferenceable(8) ptr @_ZN7obj_mapI4expr6vectorIN3sls15datatype_plugin8parent_tELb1EjEE19insert_if_not_thereEPS0_RKS5_(ptr noundef nonnull align 8 dereferenceable(24) %14, ptr noundef %15, ptr noundef nonnull align 8 dereferenceable(8) %9)
          to label %17 unwind label %27

17:                                               ; preds = %4
  call void @llvm.lifetime.start.p0(i64 24, ptr %12) #3
  %18 = getelementptr inbounds nuw %"struct.sls::datatype_plugin::parent_t", ptr %12, i32 0, i32 0
  %19 = load ptr, ptr %7, align 8, !tbaa !71
  store ptr %19, ptr %18, align 8, !tbaa !86
  %20 = getelementptr inbounds nuw %"struct.sls::datatype_plugin::parent_t", ptr %12, i32 0, i32 1
  %21 = load ptr, ptr %8, align 8, !tbaa !71
  %22 = getelementptr inbounds nuw %"class.sls::plugin", ptr %13, i32 0, i32 2
  %23 = load ptr, ptr %22, align 8, !tbaa !46
  invoke void @_ZN7obj_refI4expr11ast_managerEC2EPS0_RS1_(ptr noundef nonnull align 8 dereferenceable(16) %20, ptr noundef %21, ptr noundef nonnull align 8 dereferenceable(976) %23)
          to label %24 unwind label %31

24:                                               ; preds = %17
  %25 = invoke noundef nonnull align 8 dereferenceable(8) ptr @_ZN6vectorIN3sls15datatype_plugin8parent_tELb1EjE9push_backEOS2_(ptr noundef nonnull align 8 dereferenceable(8) %16, ptr noundef nonnull align 8 dereferenceable(24) %12)
          to label %26 unwind label %35

26:                                               ; preds = %24
  call void @_ZN3sls15datatype_plugin8parent_tD2Ev(ptr noundef nonnull align 8 dereferenceable(24) %12) #3
  call void @llvm.lifetime.end.p0(i64 24, ptr %12) #3
  call void @_ZN6vectorIN3sls15datatype_plugin8parent_tELb1EjED2Ev(ptr noundef nonnull align 8 dereferenceable(8) %9) #3
  call void @llvm.lifetime.end.p0(i64 8, ptr %9) #3
  ret void

27:                                               ; preds = %4
  %28 = landingpad { ptr, i32 }
          cleanup
  %29 = extractvalue { ptr, i32 } %28, 0
  store ptr %29, ptr %10, align 8
  %30 = extractvalue { ptr, i32 } %28, 1
  store i32 %30, ptr %11, align 4
  br label %40

31:                                               ; preds = %17
  %32 = landingpad { ptr, i32 }
          cleanup
  %33 = extractvalue { ptr, i32 } %32, 0
  store ptr %33, ptr %10, align 8
  %34 = extractvalue { ptr, i32 } %32, 1
  store i32 %34, ptr %11, align 4
  br label %39

35:                                               ; preds = %24
  %36 = landingpad { ptr, i32 }
          cleanup
  %37 = extractvalue { ptr, i32 } %36, 0
  store ptr %37, ptr %10, align 8
  %38 = extractvalue { ptr, i32 } %36, 1
  store i32 %38, ptr %11, align 4
  call void @_ZN3sls15datatype_plugin8parent_tD2Ev(ptr noundef nonnull align 8 dereferenceable(24) %12) #3
  br label %39

39:                                               ; preds = %35, %31
  call void @llvm.lifetime.end.p0(i64 24, ptr %12) #3
  br label %40

40:                                               ; preds = %39, %27
  call void @_ZN6vectorIN3sls15datatype_plugin8parent_tELb1EjED2Ev(ptr noundef nonnull align 8 dereferenceable(8) %9) #3
  call void @llvm.lifetime.end.p0(i64 8, ptr %9) #3
  br label %41

41:                                               ; preds = %40
  %42 = load ptr, ptr %10, align 8
  %43 = load i32, ptr %11, align 4
  %44 = insertvalue { ptr, i32 } poison, ptr %42, 0
  %45 = insertvalue { ptr, i32 } %44, i32 %43, 1
  resume { ptr, i32 } %45
}