; Function Attrs: mustprogress uwtable
define hidden void @_ZN3sls15datatype_plugin8add_edgeEP4exprS2_S2_(ptr noundef nonnull align 8 dereferenceable(240) %0, ptr noundef %1, ptr noundef %2, ptr noundef %3) local_unnamed_addr #3 align 2 personality ptr @__gxx_personality_v0 {
  %5 = alloca %class.vector.64, align 8
  %6 = alloca %"struct.sls::datatype_plugin::parent_t", align 8
  %7 = getelementptr inbounds nuw i8, ptr %0, i64 72
  call void @llvm.lifetime.start.p0(i64 8, ptr nonnull %5) #21
  store ptr null, ptr %5, align 8, !tbaa !135
  %8 = invoke noundef nonnull align 8 dereferenceable(8) ptr @_ZN7obj_mapI4expr6vectorIN3sls15datatype_plugin8parent_tELb1EjEE19insert_if_not_thereEPS0_RKS5_(ptr noundef nonnull align 8 dereferenceable(24) %7, ptr noundef %1, ptr noundef nonnull align 8 dereferenceable(8) %5)
          to label %9 unwind label %57

9:                                                ; preds = %4
  call void @llvm.lifetime.start.p0(i64 24, ptr nonnull %6) #21
  store ptr %2, ptr %6, align 8, !tbaa !145
  %10 = getelementptr inbounds nuw i8, ptr %6, i64 8
  %11 = getelementptr inbounds nuw i8, ptr %0, i64 16
  %12 = load ptr, ptr %11, align 8, !tbaa !51
  store ptr %3, ptr %10, align 8, !tbaa !141
  %13 = getelementptr inbounds nuw i8, ptr %6, i64 16
  store ptr %12, ptr %13, align 8, !tbaa !52
  %.not.i.i = icmp eq ptr %3, null
  br i1 %.not.i.i, label %_ZN7obj_refI4expr11ast_managerEC2EPS0_RS1_.exit, label %_ZN11ast_manager7inc_refEP3ast.exit.i.i

_ZN11ast_manager7inc_refEP3ast.exit.i.i:          ; preds = %9
  %14 = getelementptr inbounds nuw i8, ptr %3, i64 8
  %15 = load i32, ptr %14, align 4, !tbaa !88
  %16 = add i32 %15, 1
  store i32 %16, ptr %14, align 4, !tbaa !88
  br label %_ZN7obj_refI4expr11ast_managerEC2EPS0_RS1_.exit

_ZN7obj_refI4expr11ast_managerEC2EPS0_RS1_.exit:  ; preds = %_ZN11ast_manager7inc_refEP3ast.exit.i.i, %9
  %17 = load ptr, ptr %8, align 8, !tbaa !135
  %18 = icmp eq ptr %17, null
  br i1 %18, label %25, label %19

19:                                               ; preds = %_ZN7obj_refI4expr11ast_managerEC2EPS0_RS1_.exit
  %20 = getelementptr inbounds i8, ptr %17, i64 -4
  %21 = load i32, ptr %20, align 4, !tbaa !84
  %22 = getelementptr inbounds i8, ptr %17, i64 -8
  %23 = load i32, ptr %22, align 4, !tbaa !84
  %24 = icmp eq i32 %21, %23
  br i1 %24, label %25, label %_ZN3sls15datatype_plugin8parent_tD2Ev.exit

25:                                               ; preds = %19, %_ZN7obj_refI4expr11ast_managerEC2EPS0_RS1_.exit
  invoke void @_ZN6vectorIN3sls15datatype_plugin8parent_tELb1EjE13expand_vectorEv(ptr noundef nonnull align 8 dereferenceable(8) %8)
          to label %.noexc unwind label %59

.noexc:                                           ; preds = %25
  %.pre.i = load ptr, ptr %8, align 8, !tbaa !135
  %.phi.trans.insert.i = getelementptr inbounds i8, ptr %.pre.i, i64 -4
  %.pre2.i = load i32, ptr %.phi.trans.insert.i, align 4, !tbaa !84
  br label %_ZN3sls15datatype_plugin8parent_tD2Ev.exit

_ZN3sls15datatype_plugin8parent_tD2Ev.exit:       ; preds = %19, %.noexc
  %26 = phi i32 [ %.pre2.i, %.noexc ], [ %21, %19 ]
  %27 = phi ptr [ %.pre.i, %.noexc ], [ %17, %19 ]
  %28 = getelementptr inbounds i8, ptr %27, i64 -4
  %29 = zext i32 %26 to i64
  %30 = getelementptr inbounds nuw %"struct.sls::datatype_plugin::parent_t", ptr %27, i64 %29
  store ptr %2, ptr %30, align 8, !tbaa !145
  %31 = getelementptr inbounds nuw i8, ptr %30, i64 8
  %32 = getelementptr inbounds nuw i8, ptr %30, i64 16
  store ptr %12, ptr %32, align 8, !tbaa !52
  store ptr %3, ptr %31, align 8, !tbaa !85
  %33 = add i32 %26, 1
  store i32 %33, ptr %28, align 4, !tbaa !84
  call void @llvm.lifetime.end.p0(i64 24, ptr nonnull %6) #21
  %34 = load ptr, ptr %5, align 8, !tbaa !135
  %.not.i.i9 = icmp eq ptr %34, null
  br i1 %.not.i.i9, label %_ZN6vectorIN3sls15datatype_plugin8parent_tELb1EjED2Ev.exit, label %_ZNK6vectorIN3sls15datatype_plugin8parent_tELb1EjE4sizeEv.exit.i.i.i

_ZNK6vectorIN3sls15datatype_plugin8parent_tELb1EjE4sizeEv.exit.i.i.i: ; preds = %_ZN3sls15datatype_plugin8parent_tD2Ev.exit
  %35 = getelementptr inbounds i8, ptr %34, i64 -4
  %36 = load i32, ptr %35, align 4, !tbaa !84
  %.not6.i.i.i.i.i.i = icmp eq i32 %36, 0
  br i1 %.not6.i.i.i.i.i.i, label %_ZN6vectorIN3sls15datatype_plugin8parent_tELb1EjE16destroy_elementsEv.exit.i.i, label %.lr.ph.i.i.i.i.i.i

.lr.ph.i.i.i.i.i.i:                               ; preds = %_ZNK6vectorIN3sls15datatype_plugin8parent_tELb1EjE4sizeEv.exit.i.i.i, %_ZSt8_DestroyIN3sls15datatype_plugin8parent_tEEvPT_.exit.i.i.i.i.i.i
  %.08.i.i.i.i.i.i = phi i32 [ %51, %_ZSt8_DestroyIN3sls15datatype_plugin8parent_tEEvPT_.exit.i.i.i.i.i.i ], [ %36, %_ZNK6vectorIN3sls15datatype_plugin8parent_tELb1EjE4sizeEv.exit.i.i.i ]
  %.047.i.i.i.i.i.i = phi ptr [ %50, %_ZSt8_DestroyIN3sls15datatype_plugin8parent_tEEvPT_.exit.i.i.i.i.i.i ], [ %34, %_ZNK6vectorIN3sls15datatype_plugin8parent_tELb1EjE4sizeEv.exit.i.i.i ]
  %37 = getelementptr inbounds nuw i8, ptr %.047.i.i.i.i.i.i, i64 8
  %38 = load ptr, ptr %37, align 8, !tbaa !141
  %.not.i.i.i.i.i.i.i.i.i.i.i = icmp eq ptr %38, null
  br i1 %.not.i.i.i.i.i.i.i.i.i.i.i, label %_ZSt8_DestroyIN3sls15datatype_plugin8parent_tEEvPT_.exit.i.i.i.i.i.i, label %39

39:                                               ; preds = %.lr.ph.i.i.i.i.i.i
  %40 = getelementptr inbounds nuw i8, ptr %.047.i.i.i.i.i.i, i64 16
  %41 = load ptr, ptr %40, align 8, !tbaa !143
  %42 = getelementptr inbounds nuw i8, ptr %38, i64 8
  %43 = load i32, ptr %42, align 4, !tbaa !88
  %44 = add i32 %43, -1
  store i32 %44, ptr %42, align 4, !tbaa !88
  %45 = icmp eq i32 %44, 0
  br i1 %45, label %46, label %_ZSt8_DestroyIN3sls15datatype_plugin8parent_tEEvPT_.exit.i.i.i.i.i.i

46:                                               ; preds = %39
  invoke void @_ZN11ast_manager11delete_nodeEP3ast(ptr noundef nonnull align 8 dereferenceable(976) %41, ptr noundef nonnull %38)
          to label %_ZSt8_DestroyIN3sls15datatype_plugin8parent_tEEvPT_.exit.i.i.i.i.i.i unwind label %47

47:                                               ; preds = %46
  %48 = landingpad { ptr, i32 }
          catch ptr null
  %49 = extractvalue { ptr, i32 } %48, 0
  call void @__clang_call_terminate(ptr %49) #22
  unreachable

_ZSt8_DestroyIN3sls15datatype_plugin8parent_tEEvPT_.exit.i.i.i.i.i.i: ; preds = %46, %39, %.lr.ph.i.i.i.i.i.i
  %50 = getelementptr inbounds nuw i8, ptr %.047.i.i.i.i.i.i, i64 24
  %51 = add i32 %.08.i.i.i.i.i.i, -1
  %.not.i.i.i.i.i.i = icmp eq i32 %51, 0
  br i1 %.not.i.i.i.i.i.i, label %_ZN6vectorIN3sls15datatype_plugin8parent_tELb1EjE16destroy_elementsEv.exit.loopexit.i.i, label %.lr.ph.i.i.i.i.i.i, !llvm.loop !144

_ZN6vectorIN3sls15datatype_plugin8parent_tELb1EjE16destroy_elementsEv.exit.loopexit.i.i: ; preds = %_ZSt8_DestroyIN3sls15datatype_plugin8parent_tEEvPT_.exit.i.i.i.i.i.i
  %.pre.i.i = load ptr, ptr %5, align 8, !tbaa !135
  br label %_ZN6vectorIN3sls15datatype_plugin8parent_tELb1EjE16destroy_elementsEv.exit.i.i

_ZN6vectorIN3sls15datatype_plugin8parent_tELb1EjE16destroy_elementsEv.exit.i.i: ; preds = %_ZN6vectorIN3sls15datatype_plugin8parent_tELb1EjE16destroy_elementsEv.exit.loopexit.i.i, %_ZNK6vectorIN3sls15datatype_plugin8parent_tELb1EjE4sizeEv.exit.i.i.i
  %52 = phi ptr [ %.pre.i.i, %_ZN6vectorIN3sls15datatype_plugin8parent_tELb1EjE16destroy_elementsEv.exit.loopexit.i.i ], [ %34, %_ZNK6vectorIN3sls15datatype_plugin8parent_tELb1EjE4sizeEv.exit.i.i.i ]
  %53 = getelementptr inbounds i8, ptr %52, i64 -8
  invoke void @_ZN6memory10deallocateEPv(ptr noundef nonnull %53)
          to label %_ZN6vectorIN3sls15datatype_plugin8parent_tELb1EjED2Ev.exit unwind label %54

54:                                               ; preds = %_ZN6vectorIN3sls15datatype_plugin8parent_tELb1EjE16destroy_elementsEv.exit.i.i
  %55 = landingpad { ptr, i32 }
          catch ptr null
  %56 = extractvalue { ptr, i32 } %55, 0
  call void @__clang_call_terminate(ptr %56) #22
  unreachable

_ZN6vectorIN3sls15datatype_plugin8parent_tELb1EjED2Ev.exit: ; preds = %_ZN3sls15datatype_plugin8parent_tD2Ev.exit, %_ZN6vectorIN3sls15datatype_plugin8parent_tELb1EjE16destroy_elementsEv.exit.i.i
  call void @llvm.lifetime.end.p0(i64 8, ptr nonnull %5) #21
  ret void

57:                                               ; preds = %4
  %58 = landingpad { ptr, i32 }
          cleanup
  br label %61

59:                                               ; preds = %25
  %60 = landingpad { ptr, i32 }
          cleanup
  call void @_ZN3sls15datatype_plugin8parent_tD2Ev(ptr noundef nonnull align 8 dereferenceable(24) %6) #21
  call void @llvm.lifetime.end.p0(i64 24, ptr nonnull %6) #21
  br label %61

61:                                               ; preds = %59, %57
  %.pn.pn = phi { ptr, i32 } [ %60, %59 ], [ %58, %57 ]
  call void @_ZN6vectorIN3sls15datatype_plugin8parent_tELb1EjED2Ev(ptr noundef nonnull align 8 dereferenceable(8) %5) #21
  call void @llvm.lifetime.end.p0(i64 8, ptr nonnull %5) #21
  resume { ptr, i32 } %.pn.pn
}